target datalayout = "e-m:e-p270:32:32-p271:32:32-p272:64:64-i64:64-i128:128-f80:128-n8:16:32:64-S128"
target triple = "x86_64-pc-linux-gnu"

%struct._GtkTreeIter = type { i32, ptr, ptr, ptr }

@.str.5 = private unnamed_addr constant [43 x i8] c"error getting the model from the tree_view\00", align 1
@.str.6 = private unnamed_addr constant [39 x i8] c"get row, error getting iter from model\00", align 1

; Function Attrs: nounwind uwtable
define dso_local i32 @get_row_number(ptr noundef %0, ptr noundef %1) #0 {
  %3 = alloca i32, align 4
  %4 = alloca ptr, align 8
  %5 = alloca ptr, align 8
  %6 = alloca ptr, align 8
  %7 = alloca %struct._GtkTreeIter, align 8
  %8 = alloca i32, align 4
  %9 = alloca i32, align 4
  store ptr %0, ptr %4, align 8
  store ptr %1, ptr %5, align 8
  call void @llvm.lifetime.start.p0(i64 8, ptr %6) #11
  %10 = load ptr, ptr %4, align 8
  %11 = call ptr @gtk_tree_view_get_model(ptr noundef %10)
  store ptr %11, ptr %6, align 8
  call void @llvm.lifetime.start.p0(i64 32, ptr %7) #11
  call void @llvm.lifetime.start.p0(i64 4, ptr %8) #11
  store i32 0, ptr %8, align 4
  %12 = load ptr, ptr %6, align 8
  %13 = icmp ne ptr %12, null
  br i1 %13, label %19, label %14

14:                                               ; preds = %2
  br label %15

15:                                               ; preds = %14
  call void (ptr, i32, ptr, ...) @g_log(ptr noundef null, i32 noundef 4, ptr noundef @.str.5)
  br label %16

16:                                               ; preds = %16, %15
  br label %16, !llvm.loop !16

17:                                               ; No predecessors!
  br label %18

18:                                               ; preds = %17
  store i32 -1, ptr %3, align 4
  store i32 1, ptr %9, align 4
  br label %32

19:                                               ; preds = %2
  %20 = load ptr, ptr %6, align 8
  %21 = load ptr, ptr %5, align 8
  %22 = call i32 @gtk_tree_model_get_iter(ptr noundef %20, ptr noundef %7, ptr noundef %21)
  %23 = icmp ne i32 %22, 0
  br i1 %23, label %29, label %24

24:                                               ; preds = %19
  br label %25

25:                                               ; preds = %24
  call void (ptr, i32, ptr, ...) @g_log(ptr noundef null, i32 noundef 4, ptr noundef @.str.6)
  br label %26

26:                                               ; preds = %26, %25
  br label %26, !llvm.loop !17

27:                                               ; No predecessors!
  br label %28

28:                                               ; preds = %27
  store i32 -1, ptr %3, align 4
  store i32 1, ptr %9, align 4
  br label %32

29:                                               ; preds = %19
  %30 = load ptr, ptr %6, align 8
  call void (ptr, ptr, ...) @gtk_tree_model_get(ptr noundef %30, ptr noundef %7, i32 noundef 0, ptr noundef %8, i32 noundef -1)
  %31 = load i32, ptr %8, align 4
  store i32 %31, ptr %3, align 4
  store i32 1, ptr %9, align 4
  br label %32

32:                                               ; preds = %29, %28, %18
  call void @llvm.lifetime.end.p0(i64 4, ptr %8) #11
  call void @llvm.lifetime.end.p0(i64 32, ptr %7) #11
  call void @llvm.lifetime.end.p0(i64 8, ptr %6) #11
  %33 = load i32, ptr %3, align 4
  ret i32 %33
}