; Function Attrs: nounwind uwtable
define dso_local i32 @get_row_number(ptr noundef %0, ptr noundef %1) local_unnamed_addr #2 {
  %3 = alloca %struct._GtkTreeIter, align 8
  %4 = alloca i32, align 4
  %5 = tail call ptr @gtk_tree_view_get_model(ptr noundef %0) #16
  call void @llvm.lifetime.start.p0(i64 32, ptr nonnull %3) #16
  call void @llvm.lifetime.start.p0(i64 4, ptr nonnull %4) #16
  store i32 0, ptr %4, align 4
  %.not = icmp eq ptr %5, null
  br i1 %.not, label %6, label %8

6:                                                ; preds = %2
  tail call void (ptr, i32, ptr, ...) @g_log(ptr noundef null, i32 noundef 4, ptr noundef nonnull @.str.5) #16
  br label %7

7:                                                ; preds = %7, %6
  br label %7, !llvm.loop !15

8:                                                ; preds = %2
  %9 = call i32 @gtk_tree_model_get_iter(ptr noundef nonnull %5, ptr noundef nonnull %3, ptr noundef %1) #16
  %.not5 = icmp eq i32 %9, 0
  br i1 %.not5, label %10, label %12

10:                                               ; preds = %8
  call void (ptr, i32, ptr, ...) @g_log(ptr noundef null, i32 noundef 4, ptr noundef nonnull @.str.6) #16
  br label %11

11:                                               ; preds = %11, %10
  br label %11, !llvm.loop !16

12:                                               ; preds = %8
  call void (ptr, ptr, ...) @gtk_tree_model_get(ptr noundef nonnull %5, ptr noundef nonnull %3, i32 noundef 0, ptr noundef nonnull %4, i32 noundef -1) #16
  %13 = load i32, ptr %4, align 4
  call void @llvm.lifetime.end.p0(i64 4, ptr nonnull %4) #16
  call void @llvm.lifetime.end.p0(i64 32, ptr nonnull %3) #16
  ret i32 %13
}